target datalayout = "e-m:e-p270:32:32-p271:32:32-p272:64:64-i64:64-i128:128-f80:128-n8:16:32:64-S128"
target triple = "x86_64-pc-linux-gnu"

%struct.RDTDemuxContext = type { ptr, ptr, i32, ptr, ptr, i32, i32, i32 }
%struct.AVFormatContext = type { ptr, ptr, ptr, ptr, ptr, i32, i32, ptr, i32, ptr, i32, ptr, ptr, i64, i64, i64, i32, i32, i32, i64, i64, ptr, i32, i32, ptr, i32, i32, i32, i32, ptr, i64, i32, i32, %struct.AVIOInterruptCB, i32, i32, i32, i32, i64, i32, i32, i32, i32, i32, i32, i32, i32, i32, i32, i32, i32, i64, i32, i32, i32, i32, i32, ptr, ptr, ptr, ptr, i32, ptr, ptr, ptr, ptr, i32, ptr, ptr, i64, ptr, ptr, ptr, i64 }
%struct.AVIOInterruptCB = type { ptr, ptr }
%struct.AVStream = type { ptr, i32, i32, ptr, ptr, %struct.AVRational, i64, i64, i64, i32, i32, %struct.AVRational, ptr, %struct.AVRational, %struct.AVPacket, i32, %struct.AVRational, i32 }
%struct.AVPacket = type { ptr, i64, i64, ptr, i32, i32, i32, ptr, i32, i64, i64, ptr, ptr, %struct.AVRational }
%struct.AVRational = type { i32, i32 }
%struct.RTPDynamicProtocolHandler = type { ptr, i32, i32, i32, i32, i32, ptr, ptr, ptr, ptr, ptr }

; Function Attrs: nounwind uwtable
define ptr @ff_rdt_parse_open(ptr noundef %0, i32 noundef %1, ptr noundef %2, ptr noundef %3) #0 {
  %5 = alloca ptr, align 8
  %6 = alloca ptr, align 8
  %7 = alloca i32, align 4
  %8 = alloca ptr, align 8
  %9 = alloca ptr, align 8
  %10 = alloca ptr, align 8
  %11 = alloca i32, align 4
  store ptr %0, ptr %6, align 8, !tbaa !4
  store i32 %1, ptr %7, align 4, !tbaa !9
  store ptr %2, ptr %8, align 8, !tbaa !11
  store ptr %3, ptr %9, align 8, !tbaa !12
  call void @llvm.lifetime.start.p0(i64 8, ptr %10) #12
  %12 = call noalias ptr @av_mallocz(i64 noundef 56)
  store ptr %12, ptr %10, align 8, !tbaa !14
  %13 = load ptr, ptr %10, align 8, !tbaa !14
  %14 = icmp ne ptr %13, null
  br i1 %14, label %16, label %15

15:                                               ; preds = %4
  store ptr null, ptr %5, align 8
  store i32 1, ptr %11, align 4
  br label %87

16:                                               ; preds = %4
  %17 = load ptr, ptr %6, align 8, !tbaa !4
  %18 = load ptr, ptr %10, align 8, !tbaa !14
  %19 = getelementptr inbounds nuw %struct.RDTDemuxContext, ptr %18, i32 0, i32 0
  store ptr %17, ptr %19, align 8, !tbaa !16
  %20 = load ptr, ptr %6, align 8, !tbaa !4
  %21 = getelementptr inbounds nuw %struct.AVFormatContext, ptr %20, i32 0, i32 7
  %22 = load ptr, ptr %21, align 8, !tbaa !20
  %23 = load i32, ptr %7, align 4, !tbaa !9
  %24 = sext i32 %23 to i64
  %25 = getelementptr inbounds ptr, ptr %22, i64 %24
  %26 = load ptr, ptr %10, align 8, !tbaa !14
  %27 = getelementptr inbounds nuw %struct.RDTDemuxContext, ptr %26, i32 0, i32 1
  store ptr %25, ptr %27, align 8, !tbaa !34
  br label %28

28:                                               ; preds = %63, %16
  %29 = load ptr, ptr %10, align 8, !tbaa !14
  %30 = getelementptr inbounds nuw %struct.RDTDemuxContext, ptr %29, i32 0, i32 2
  %31 = load i32, ptr %30, align 8, !tbaa !35
  %32 = add nsw i32 %31, 1
  store i32 %32, ptr %30, align 8, !tbaa !35
  br label %33

33:                                               ; preds = %28
  %34 = load i32, ptr %7, align 4, !tbaa !9
  %35 = load ptr, ptr %10, align 8, !tbaa !14
  %36 = getelementptr inbounds nuw %struct.RDTDemuxContext, ptr %35, i32 0, i32 2
  %37 = load i32, ptr %36, align 8, !tbaa !35
  %38 = add nsw i32 %34, %37
  %39 = load ptr, ptr %6, align 8, !tbaa !4
  %40 = getelementptr inbounds nuw %struct.AVFormatContext, ptr %39, i32 0, i32 6
  %41 = load i32, ptr %40, align 4, !tbaa !36
  %42 = icmp ult i32 %38, %41
  br i1 %42, label %43, label %63

43:                                               ; preds = %33
  %44 = load ptr, ptr %10, align 8, !tbaa !14
  %45 = getelementptr inbounds nuw %struct.RDTDemuxContext, ptr %44, i32 0, i32 1
  %46 = load ptr, ptr %45, align 8, !tbaa !34
  %47 = load ptr, ptr %10, align 8, !tbaa !14
  %48 = getelementptr inbounds nuw %struct.RDTDemuxContext, ptr %47, i32 0, i32 2
  %49 = load i32, ptr %48, align 8, !tbaa !35
  %50 = sext i32 %49 to i64
  %51 = getelementptr inbounds ptr, ptr %46, i64 %50
  %52 = load ptr, ptr %51, align 8, !tbaa !37
  %53 = getelementptr inbounds nuw %struct.AVStream, ptr %52, i32 0, i32 2
  %54 = load i32, ptr %53, align 4, !tbaa !39
  %55 = load ptr, ptr %10, align 8, !tbaa !14
  %56 = getelementptr inbounds nuw %struct.RDTDemuxContext, ptr %55, i32 0, i32 1
  %57 = load ptr, ptr %56, align 8, !tbaa !34
  %58 = getelementptr inbounds ptr, ptr %57, i64 0
  %59 = load ptr, ptr %58, align 8, !tbaa !37
  %60 = getelementptr inbounds nuw %struct.AVStream, ptr %59, i32 0, i32 2
  %61 = load i32, ptr %60, align 4, !tbaa !39
  %62 = icmp eq i32 %54, %61
  br label %63

63:                                               ; preds = %43, %33
  %64 = phi i1 [ false, %33 ], [ %62, %43 ]
  br i1 %64, label %28, label %65, !llvm.loop !46

65:                                               ; preds = %63
  %66 = load ptr, ptr %10, align 8, !tbaa !14
  %67 = getelementptr inbounds nuw %struct.RDTDemuxContext, ptr %66, i32 0, i32 6
  store i32 -1, ptr %67, align 4, !tbaa !48
  %68 = load ptr, ptr %10, align 8, !tbaa !14
  %69 = getelementptr inbounds nuw %struct.RDTDemuxContext, ptr %68, i32 0, i32 7
  store i32 -1, ptr %69, align 8, !tbaa !49
  %70 = load ptr, ptr %10, align 8, !tbaa !14
  %71 = getelementptr inbounds nuw %struct.RDTDemuxContext, ptr %70, i32 0, i32 5
  store i32 -1, ptr %71, align 8, !tbaa !50
  %72 = load ptr, ptr %9, align 8, !tbaa !12
  %73 = icmp ne ptr %72, null
  br i1 %73, label %74, label %78

74:                                               ; preds = %65
  %75 = load ptr, ptr %9, align 8, !tbaa !12
  %76 = getelementptr inbounds nuw %struct.RTPDynamicProtocolHandler, ptr %75, i32 0, i32 9
  %77 = load ptr, ptr %76, align 8, !tbaa !51
  br label %79

78:                                               ; preds = %65
  br label %79

79:                                               ; preds = %78, %74
  %80 = phi ptr [ %77, %74 ], [ null, %78 ]
  %81 = load ptr, ptr %10, align 8, !tbaa !14
  %82 = getelementptr inbounds nuw %struct.RDTDemuxContext, ptr %81, i32 0, i32 4
  store ptr %80, ptr %82, align 8, !tbaa !53
  %83 = load ptr, ptr %8, align 8, !tbaa !11
  %84 = load ptr, ptr %10, align 8, !tbaa !14
  %85 = getelementptr inbounds nuw %struct.RDTDemuxContext, ptr %84, i32 0, i32 3
  store ptr %83, ptr %85, align 8, !tbaa !54
  %86 = load ptr, ptr %10, align 8, !tbaa !14
  store ptr %86, ptr %5, align 8
  store i32 1, ptr %11, align 4
  br label %87

87:                                               ; preds = %79, %15
  call void @llvm.lifetime.end.p0(i64 8, ptr %10) #12
  %88 = load ptr, ptr %5, align 8
  ret ptr %88
}