; Function Attrs: nounwind uwtable
define noalias ptr @ff_rdt_parse_open(ptr noundef %0, i32 noundef %1, ptr noundef %2, ptr noundef readonly captures(address_is_null) %3) local_unnamed_addr #0 {
  %5 = tail call noalias ptr @av_mallocz(i64 noundef 56) #11
  %.not = icmp eq ptr %5, null
  br i1 %.not, label %40, label %6

6:                                                ; preds = %4
  store ptr %0, ptr %5, align 8, !tbaa !4
  %7 = getelementptr inbounds nuw i8, ptr %0, i64 48
  %8 = load ptr, ptr %7, align 8, !tbaa !13
  %9 = sext i32 %1 to i64
  %10 = getelementptr inbounds ptr, ptr %8, i64 %9
  %11 = getelementptr inbounds nuw i8, ptr %5, i64 8
  store ptr %10, ptr %11, align 8, !tbaa !27
  %12 = getelementptr inbounds nuw i8, ptr %5, i64 16
  %13 = getelementptr inbounds nuw i8, ptr %0, i64 44
  %14 = load i32, ptr %13, align 4, !tbaa !28
  %.promoted = load i32, ptr %12, align 8, !tbaa !29
  %15 = sext i32 %.promoted to i64
  br label %16

16:                                               ; preds = %20, %6
  %indvars.iv = phi i64 [ %indvars.iv.next, %20 ], [ %15, %6 ]
  %indvars.iv.next = add nsw i64 %indvars.iv, 1
  %17 = trunc i64 %indvars.iv.next to i32
  %18 = add i32 %1, %17
  %19 = icmp ult i32 %18, %14
  br i1 %19, label %20, label %.critedge

20:                                               ; preds = %16
  %21 = getelementptr inbounds ptr, ptr %10, i64 %indvars.iv.next
  %22 = load ptr, ptr %21, align 8, !tbaa !30
  %23 = getelementptr inbounds nuw i8, ptr %22, i64 12
  %24 = load i32, ptr %23, align 4, !tbaa !32
  %25 = load ptr, ptr %10, align 8, !tbaa !30
  %26 = getelementptr inbounds nuw i8, ptr %25, i64 12
  %27 = load i32, ptr %26, align 4, !tbaa !32
  %28 = icmp eq i32 %24, %27
  br i1 %28, label %16, label %.critedge, !llvm.loop !39

.critedge:                                        ; preds = %16, %20
  %29 = trunc nsw i64 %indvars.iv.next to i32
  store i32 %29, ptr %12, align 8, !tbaa !29
  %30 = getelementptr inbounds nuw i8, ptr %5, i64 44
  store i32 -1, ptr %30, align 4, !tbaa !41
  %31 = getelementptr inbounds nuw i8, ptr %5, i64 48
  store i32 -1, ptr %31, align 8, !tbaa !42
  %32 = getelementptr inbounds nuw i8, ptr %5, i64 40
  store i32 -1, ptr %32, align 8, !tbaa !43
  %.not24 = icmp eq ptr %3, null
  br i1 %.not24, label %36, label %33

33:                                               ; preds = %.critedge
  %34 = getelementptr inbounds nuw i8, ptr %3, i64 56
  %35 = load ptr, ptr %34, align 8, !tbaa !44
  br label %36

36:                                               ; preds = %.critedge, %33
  %37 = phi ptr [ %35, %33 ], [ null, %.critedge ]
  %38 = getelementptr inbounds nuw i8, ptr %5, i64 32
  store ptr %37, ptr %38, align 8, !tbaa !46
  %39 = getelementptr inbounds nuw i8, ptr %5, i64 24
  store ptr %2, ptr %39, align 8, !tbaa !47
  br label %40

40:                                               ; preds = %4, %36
  ret ptr %5
}